target datalayout = "e-m:e-p270:32:32-p271:32:32-p272:64:64-i64:64-i128:128-f80:128-n8:16:32:64-S128"
target triple = "x86_64-pc-linux-gnu"

%"class.zmq::signaler_t" = type { i32, i32, i32 }

@stderr = external global ptr, align 8
@.str = private unnamed_addr constant [12 x i8] c"%s (%s:%d)\0A\00", align 1
@.str.1 = private unnamed_addr constant [108 x i8] c"generated/home/dtcxzyw/WorkSpace/Projects/compilers/llvm-opt-benchmark/bench/libzmq/libzmq/src/signaler.cpp\00", align 1

; Function Attrs: mustprogress uwtable
define internal noundef i32 @_ZL8sleep_msj(i32 noundef %0) #0 {
  %2 = alloca i32, align 4
  %3 = alloca i32, align 4
  store i32 %0, ptr %3, align 4, !tbaa !13
  %4 = load i32, ptr %3, align 4, !tbaa !13
  %5 = icmp eq i32 %4, 0
  br i1 %5, label %6, label %7

6:                                                ; preds = %1
  store i32 0, ptr %2, align 4
  br label %11

7:                                                ; preds = %1
  %8 = load i32, ptr %3, align 4, !tbaa !13
  %9 = mul i32 %8, 1000
  %10 = call i32 @usleep(i32 noundef %9)
  store i32 %10, ptr %2, align 4
  br label %11

11:                                               ; preds = %7, %6
  %12 = load i32, ptr %2, align 4
  ret i32 %12
}

; Function Attrs: inlinehint mustprogress nounwind uwtable
define linkonce_odr noundef nonnull align 4 dereferenceable(4) ptr @_ZSt3minIjERKT_S2_S2_(ptr noundef nonnull align 4 dereferenceable(4) %0, ptr noundef nonnull align 4 dereferenceable(4) %1) #8 comdat {
  %3 = alloca ptr, align 8
  %4 = alloca ptr, align 8
  %5 = alloca ptr, align 8
  store ptr %0, ptr %4, align 8, !tbaa !27
  store ptr %1, ptr %5, align 8, !tbaa !27
  %6 = load ptr, ptr %5, align 8, !tbaa !27
  %7 = load i32, ptr %6, align 4, !tbaa !13
  %8 = load ptr, ptr %4, align 8, !tbaa !27
  %9 = load i32, ptr %8, align 4, !tbaa !13
  %10 = icmp ult i32 %7, %9
  br i1 %10, label %11, label %13

11:                                               ; preds = %2
  %12 = load ptr, ptr %5, align 8, !tbaa !27
  store ptr %12, ptr %3, align 8
  br label %15

13:                                               ; preds = %2
  %14 = load ptr, ptr %4, align 8, !tbaa !27
  store ptr %14, ptr %3, align 8
  br label %15

15:                                               ; preds = %13, %11
  %16 = load ptr, ptr %3, align 8
  ret ptr %16
}

; Function Attrs: inlinehint mustprogress nounwind uwtable
define linkonce_odr noundef nonnull align 4 dereferenceable(4) ptr @_ZSt3maxIjERKT_S2_S2_(ptr noundef nonnull align 4 dereferenceable(4) %0, ptr noundef nonnull align 4 dereferenceable(4) %1) #8 comdat {
  %3 = alloca ptr, align 8
  %4 = alloca ptr, align 8
  %5 = alloca ptr, align 8
  store ptr %0, ptr %4, align 8, !tbaa !27
  store ptr %1, ptr %5, align 8, !tbaa !27
  %6 = load ptr, ptr %4, align 8, !tbaa !27
  %7 = load i32, ptr %6, align 4, !tbaa !13
  %8 = load ptr, ptr %5, align 8, !tbaa !27
  %9 = load i32, ptr %8, align 4, !tbaa !13
  %10 = icmp ult i32 %7, %9
  br i1 %10, label %11, label %13

11:                                               ; preds = %2
  %12 = load ptr, ptr %5, align 8, !tbaa !27
  store ptr %12, ptr %3, align 8
  br label %15

13:                                               ; preds = %2
  %14 = load ptr, ptr %4, align 8, !tbaa !27
  store ptr %14, ptr %3, align 8
  br label %15

15:                                               ; preds = %13, %11
  %16 = load ptr, ptr %3, align 8
  ret ptr %16
}

; Function Attrs: mustprogress uwtable
define internal noundef i32 @_ZL13close_wait_msij(i32 noundef %0, i32 noundef %1) #0 {
  %3 = alloca i32, align 4
  %4 = alloca i32, align 4
  %5 = alloca i32, align 4
  %6 = alloca i32, align 4
  %7 = alloca i32, align 4
  %8 = alloca i32, align 4
  %9 = alloca i32, align 4
  %10 = alloca i32, align 4
  store i32 %0, ptr %3, align 4, !tbaa !13
  store i32 %1, ptr %4, align 4, !tbaa !13
  call void @llvm.lifetime.start.p0(i64 4, ptr %5) #9
  store i32 0, ptr %5, align 4, !tbaa !13
  call void @llvm.lifetime.start.p0(i64 4, ptr %6) #9
  store i32 1, ptr %6, align 4, !tbaa !13
  call void @llvm.lifetime.start.p0(i64 4, ptr %7) #9
  store i32 100, ptr %7, align 4, !tbaa !13
  call void @llvm.lifetime.start.p0(i64 4, ptr %8) #9
  call void @llvm.lifetime.start.p0(i64 4, ptr %9) #9
  %11 = load i32, ptr %4, align 4, !tbaa !13
  %12 = udiv i32 %11, 10
  store i32 %12, ptr %9, align 4, !tbaa !13
  %13 = call noundef nonnull align 4 dereferenceable(4) ptr @_ZSt3maxIjERKT_S2_S2_(ptr noundef nonnull align 4 dereferenceable(4) %6, ptr noundef nonnull align 4 dereferenceable(4) %9)
  %14 = call noundef nonnull align 4 dereferenceable(4) ptr @_ZSt3minIjERKT_S2_S2_(ptr noundef nonnull align 4 dereferenceable(4) %13, ptr noundef nonnull align 4 dereferenceable(4) %7)
  %15 = load i32, ptr %14, align 4, !tbaa !13
  call void @llvm.lifetime.end.p0(i64 4, ptr %9) #9
  store i32 %15, ptr %8, align 4, !tbaa !13
  call void @llvm.lifetime.start.p0(i64 4, ptr %10) #9
  store i32 0, ptr %10, align 4, !tbaa !13
  br label %16

16:                                               ; preds = %43, %2
  %17 = load i32, ptr %10, align 4, !tbaa !13
  %18 = icmp eq i32 %17, -1
  br i1 %18, label %19, label %29

19:                                               ; preds = %16
  %20 = call ptr @__errno_location() #10
  %21 = load i32, ptr %20, align 4, !tbaa !13
  %22 = icmp eq i32 %21, 11
  br i1 %22, label %23, label %29

23:                                               ; preds = %19
  %24 = load i32, ptr %8, align 4, !tbaa !13
  %25 = call noundef i32 @_ZL8sleep_msj(i32 noundef %24)
  %26 = load i32, ptr %8, align 4, !tbaa !13
  %27 = load i32, ptr %5, align 4, !tbaa !13
  %28 = add i32 %27, %26
  store i32 %28, ptr %5, align 4, !tbaa !13
  br label %29

29:                                               ; preds = %23, %19, %16
  %30 = load i32, ptr %3, align 4, !tbaa !13
  %31 = call i32 @close(i32 noundef %30)
  store i32 %31, ptr %10, align 4, !tbaa !13
  br label %32

32:                                               ; preds = %29
  %33 = load i32, ptr %5, align 4, !tbaa !13
  %34 = load i32, ptr %4, align 4, !tbaa !13
  %35 = icmp ult i32 %33, %34
  br i1 %35, label %36, label %43

36:                                               ; preds = %32
  %37 = load i32, ptr %10, align 4, !tbaa !13
  %38 = icmp eq i32 %37, -1
  br i1 %38, label %39, label %43

39:                                               ; preds = %36
  %40 = call ptr @__errno_location() #10
  %41 = load i32, ptr %40, align 4, !tbaa !13
  %42 = icmp eq i32 %41, 11
  br label %43

43:                                               ; preds = %39, %36, %32
  %44 = phi i1 [ false, %36 ], [ false, %32 ], [ %42, %39 ]
  br i1 %44, label %16, label %45, !llvm.loop !18

45:                                               ; preds = %43
  %46 = load i32, ptr %10, align 4, !tbaa !13
  call void @llvm.lifetime.end.p0(i64 4, ptr %10) #9
  call void @llvm.lifetime.end.p0(i64 4, ptr %8) #9
  call void @llvm.lifetime.end.p0(i64 4, ptr %7) #9
  call void @llvm.lifetime.end.p0(i64 4, ptr %6) #9
  call void @llvm.lifetime.end.p0(i64 4, ptr %5) #9
  ret i32 %46
}

; Function Attrs: mustprogress nounwind uwtable
define void @_ZN3zmq10signaler_tD2Ev(ptr noundef nonnull align 4 dereferenceable(12) %0) unnamed_addr #3 align 2 personality ptr @__gxx_personality_v0 {
  %2 = alloca ptr, align 8
  %3 = alloca i32, align 4
  %4 = alloca ptr, align 8
  store ptr %0, ptr %2, align 8, !tbaa !3
  %5 = load ptr, ptr %2, align 8
  %6 = getelementptr inbounds nuw %"class.zmq::signaler_t", ptr %5, i32 0, i32 1
  %7 = load i32, ptr %6, align 4, !tbaa !11
  %8 = icmp eq i32 %7, -1
  br i1 %8, label %9, label %10

9:                                                ; preds = %1
  br label %37

10:                                               ; preds = %1
  call void @llvm.lifetime.start.p0(i64 4, ptr %3) #9
  %11 = getelementptr inbounds nuw %"class.zmq::signaler_t", ptr %5, i32 0, i32 1
  %12 = load i32, ptr %11, align 4, !tbaa !11
  %13 = invoke noundef i32 @_ZL13close_wait_msij(i32 noundef %12, i32 noundef 2000)
          to label %14 unwind label %38

14:                                               ; preds = %10
  store i32 %13, ptr %3, align 4, !tbaa !13
  br label %15

15:                                               ; preds = %14
  %16 = load i32, ptr %3, align 4, !tbaa !13
  %17 = icmp eq i32 %16, 0
  %18 = xor i1 %17, true
  %19 = zext i1 %18 to i64
  %20 = call i64 @llvm.expect.i64(i64 %19, i64 0)
  %21 = icmp ne i64 %20, 0
  br i1 %21, label %22, label %34

22:                                               ; preds = %15
  call void @llvm.lifetime.start.p0(i64 8, ptr %4) #9
  %23 = call ptr @__errno_location() #10
  %24 = load i32, ptr %23, align 4, !tbaa !13
  %25 = call ptr @strerror(i32 noundef %24) #9
  store ptr %25, ptr %4, align 8, !tbaa !14
  %26 = load ptr, ptr @stderr, align 8, !tbaa !16
  %27 = load ptr, ptr %4, align 8, !tbaa !14
  %28 = call i32 (ptr, ptr, ...) @fprintf(ptr noundef %26, ptr noundef @.str, ptr noundef %27, ptr noundef @.str.1, i32 noundef 111) #9
  %29 = load ptr, ptr @stderr, align 8, !tbaa !16
  %30 = invoke i32 @fflush(ptr noundef %29)
          to label %31 unwind label %38

31:                                               ; preds = %22
  %32 = load ptr, ptr %4, align 8, !tbaa !14
  invoke void @_ZN3zmq9zmq_abortEPKc(ptr noundef %32)
          to label %33 unwind label %38

33:                                               ; preds = %31
  call void @llvm.lifetime.end.p0(i64 8, ptr %4) #9
  br label %34

34:                                               ; preds = %33, %15
  br label %35

35:                                               ; preds = %34
  br label %36

36:                                               ; preds = %35
  call void @llvm.lifetime.end.p0(i64 4, ptr %3) #9
  br label %37

37:                                               ; preds = %36, %9
  ret void

38:                                               ; preds = %31, %22, %10
  %39 = landingpad { ptr, i32 }
          catch ptr null
  %40 = extractvalue { ptr, i32 } %39, 0
  call void @__clang_call_terminate(ptr %40) #11
  unreachable
}