; Function Attrs: mustprogress nounwind uwtable
define void @_ZN3zmq10signaler_tD2Ev(ptr noundef nonnull readonly align 4 captures(none) dereferenceable(12) %0) unnamed_addr #3 align 2 personality ptr @__gxx_personality_v0 {
  %2 = getelementptr inbounds nuw i8, ptr %0, i64 4
  %3 = load i32, ptr %2, align 4, !tbaa !8
  %4 = icmp eq i32 %3, -1
  br i1 %4, label %26, label %.preheader

.preheader:                                       ; preds = %1, %16
  %.011.i = phi i32 [ %.1.i, %16 ], [ 0, %1 ]
  %5 = phi i1 [ true, %16 ], [ false, %1 ]
  br i1 %5, label %6, label %12

6:                                                ; preds = %.preheader
  %7 = tail call ptr @__errno_location() #12
  %8 = load i32, ptr %7, align 4, !tbaa !10
  %9 = icmp eq i32 %8, 11
  br i1 %9, label %_ZL8sleep_msj.exit.i, label %12

_ZL8sleep_msj.exit.i:                             ; preds = %6
  %10 = invoke i32 @usleep(i32 noundef 100000)
          to label %.noexc unwind label %.loopexit

.noexc:                                           ; preds = %_ZL8sleep_msj.exit.i
  %11 = add nuw nsw i32 %.011.i, 100
  br label %12

12:                                               ; preds = %.noexc, %6, %.preheader
  %.1.i = phi i32 [ %11, %.noexc ], [ %.011.i, %6 ], [ %.011.i, %.preheader ]
  %13 = invoke i32 @close(i32 noundef range(i32 0, -1) %3)
          to label %.noexc3 unwind label %.loopexit

.noexc3:                                          ; preds = %12
  %14 = icmp ult i32 %.1.i, 2000
  %15 = icmp eq i32 %13, -1
  %or.cond.i = select i1 %14, i1 %15, i1 false
  br i1 %or.cond.i, label %16, label %_ZL13close_wait_msij.exit

16:                                               ; preds = %.noexc3
  %17 = tail call ptr @__errno_location() #12
  %18 = load i32, ptr %17, align 4, !tbaa !10
  %19 = icmp eq i32 %18, 11
  br i1 %19, label %.preheader, label %_ZL13close_wait_msij.exit.thread, !llvm.loop !11

_ZL13close_wait_msij.exit:                        ; preds = %.noexc3
  %.not = icmp eq i32 %13, 0
  br i1 %.not, label %26, label %_ZL13close_wait_msij.exit._ZL13close_wait_msij.exit.thread_crit_edge, !prof !13

_ZL13close_wait_msij.exit._ZL13close_wait_msij.exit.thread_crit_edge: ; preds = %_ZL13close_wait_msij.exit
  %.pre = tail call ptr @__errno_location() #12
  br label %_ZL13close_wait_msij.exit.thread

_ZL13close_wait_msij.exit.thread:                 ; preds = %16, %_ZL13close_wait_msij.exit._ZL13close_wait_msij.exit.thread_crit_edge
  %.pre-phi = phi ptr [ %.pre, %_ZL13close_wait_msij.exit._ZL13close_wait_msij.exit.thread_crit_edge ], [ %17, %16 ]
  %20 = load i32, ptr %.pre-phi, align 4, !tbaa !10
  %21 = tail call ptr @strerror(i32 noundef %20) #11
  %22 = load ptr, ptr @stderr, align 8, !tbaa !14
  %23 = tail call i32 (ptr, ptr, ...) @fprintf(ptr noundef %22, ptr noundef nonnull @.str, ptr noundef %21, ptr noundef nonnull @.str.1, i32 noundef 111) #13
  %24 = load ptr, ptr @stderr, align 8, !tbaa !14
  %25 = tail call i32 @fflush(ptr noundef %24)
  invoke void @_ZN3zmq9zmq_abortEPKc(ptr noundef %21)
          to label %26 unwind label %.loopexit.split-lp

26:                                               ; preds = %_ZL13close_wait_msij.exit, %_ZL13close_wait_msij.exit.thread, %1
  ret void

.loopexit:                                        ; preds = %_ZL8sleep_msj.exit.i, %12
  %lpad.loopexit = landingpad { ptr, i32 }
          catch ptr null
  br label %27

.loopexit.split-lp:                               ; preds = %_ZL13close_wait_msij.exit.thread
  %lpad.loopexit.split-lp = landingpad { ptr, i32 }
          catch ptr null
  br label %27

27:                                               ; preds = %.loopexit.split-lp, %.loopexit
  %lpad.phi = phi { ptr, i32 } [ %lpad.loopexit, %.loopexit ], [ %lpad.loopexit.split-lp, %.loopexit.split-lp ]
  %28 = extractvalue { ptr, i32 } %lpad.phi, 0
  tail call void @__clang_call_terminate(ptr %28) #14
  unreachable
}